target datalayout = "e-m:e-p270:32:32-p271:32:32-p272:64:64-i64:64-i128:128-f80:128-n8:16:32:64-S128"
target triple = "x86_64-pc-linux-gnu"

%class.FilesetEntryModel = type { %class.QAbstractItemModel, %class.QList }
%class.QAbstractItemModel = type { %class.QObject }
%class.QObject = type { ptr, %class.QScopedPointer }
%class.QScopedPointer = type { ptr }
%class.QList = type { %struct.QArrayDataPointer }
%struct.QArrayDataPointer = type { ptr, ptr, i64 }
%class.QModelIndex = type { i32, i32, i64, ptr }

; Function Attrs: mustprogress nounwind uwtable
define linkonce_odr noundef ptr @_ZNK17QArrayDataPointerIPK14_fileset_entryE4dataEv(ptr noundef nonnull align 8 dereferenceable(24) %0) #2 comdat align 2 {
  %2 = alloca ptr, align 8
  store ptr %0, ptr %2, align 8
  %3 = load ptr, ptr %2, align 8
  %4 = getelementptr inbounds %struct.QArrayDataPointer, ptr %3, i32 0, i32 1
  %5 = load ptr, ptr %4, align 8
  ret ptr %5
}

; Function Attrs: mustprogress nounwind uwtable
define linkonce_odr noundef ptr @_ZNK17QArrayDataPointerIPK14_fileset_entryEptEv(ptr noundef nonnull align 8 dereferenceable(24) %0) #2 comdat align 2 {
  %2 = alloca ptr, align 8
  store ptr %0, ptr %2, align 8
  %3 = load ptr, ptr %2, align 8
  ret ptr %3
}

; Function Attrs: mustprogress nounwind uwtable
define linkonce_odr void @_ZN11QModelIndexC2EiiPKvPK18QAbstractItemModel(ptr noundef nonnull align 8 dereferenceable(24) %0, i32 noundef %1, i32 noundef %2, ptr noundef %3, ptr noundef %4) unnamed_addr #2 comdat align 2 {
  %6 = alloca ptr, align 8
  %7 = alloca i32, align 4
  %8 = alloca i32, align 4
  %9 = alloca ptr, align 8
  %10 = alloca ptr, align 8
  store ptr %0, ptr %6, align 8
  store i32 %1, ptr %7, align 4
  store i32 %2, ptr %8, align 4
  store ptr %3, ptr %9, align 8
  store ptr %4, ptr %10, align 8
  %11 = load ptr, ptr %6, align 8
  %12 = getelementptr inbounds %class.QModelIndex, ptr %11, i32 0, i32 0
  %13 = load i32, ptr %7, align 4
  store i32 %13, ptr %12, align 8
  %14 = getelementptr inbounds %class.QModelIndex, ptr %11, i32 0, i32 1
  %15 = load i32, ptr %8, align 4
  store i32 %15, ptr %14, align 4
  %16 = getelementptr inbounds %class.QModelIndex, ptr %11, i32 0, i32 2
  %17 = load ptr, ptr %9, align 8
  %18 = ptrtoint ptr %17 to i64
  store i64 %18, ptr %16, align 8
  %19 = getelementptr inbounds %class.QModelIndex, ptr %11, i32 0, i32 3
  %20 = load ptr, ptr %10, align 8
  store ptr %20, ptr %19, align 8
  ret void
}

; Function Attrs: mustprogress nounwind uwtable
define linkonce_odr noundef ptr @_ZNK5QListIPK14_fileset_entryE4dataEv(ptr noundef nonnull align 8 dereferenceable(24) %0) #2 comdat align 2 {
  %2 = alloca ptr, align 8
  store ptr %0, ptr %2, align 8
  %3 = load ptr, ptr %2, align 8
  %4 = getelementptr inbounds %class.QList, ptr %3, i32 0, i32 0
  %5 = call noundef ptr @_ZNK17QArrayDataPointerIPK14_fileset_entryEptEv(ptr noundef nonnull align 8 dereferenceable(24) %4) #8
  %6 = call noundef ptr @_ZNK17QArrayDataPointerIPK14_fileset_entryE4dataEv(ptr noundef nonnull align 8 dereferenceable(24) %5) #8
  ret ptr %6
}

; Function Attrs: mustprogress nounwind uwtable
define linkonce_odr noundef i64 @_ZNK5QListIPK14_fileset_entryE4sizeEv(ptr noundef nonnull align 8 dereferenceable(24) %0) #2 comdat align 2 {
  %2 = alloca ptr, align 8
  store ptr %0, ptr %2, align 8
  %3 = load ptr, ptr %2, align 8
  %4 = getelementptr inbounds %class.QList, ptr %3, i32 0, i32 0
  %5 = call noundef ptr @_ZNK17QArrayDataPointerIPK14_fileset_entryEptEv(ptr noundef nonnull align 8 dereferenceable(24) %4) #8
  %6 = getelementptr inbounds %struct.QArrayDataPointer, ptr %5, i32 0, i32 2
  %7 = load i64, ptr %6, align 8
  ret i64 %7
}

; Function Attrs: mustprogress nounwind uwtable
define linkonce_odr void @_ZNK18QAbstractItemModel11createIndexEiiPKv(ptr dead_on_unwind noalias writable sret(%class.QModelIndex) align 8 %0, ptr noundef nonnull align 8 dereferenceable(16) %1, i32 noundef %2, i32 noundef %3, ptr noundef %4) #2 comdat align 2 {
  %6 = alloca ptr, align 8
  %7 = alloca i32, align 4
  %8 = alloca i32, align 4
  %9 = alloca ptr, align 8
  store ptr %1, ptr %6, align 8
  store i32 %2, ptr %7, align 4
  store i32 %3, ptr %8, align 4
  store ptr %4, ptr %9, align 8
  %10 = load ptr, ptr %6, align 8
  %11 = load i32, ptr %7, align 4
  %12 = load i32, ptr %8, align 4
  %13 = load ptr, ptr %9, align 8
  call void @_ZN11QModelIndexC2EiiPKvPK18QAbstractItemModel(ptr noundef nonnull align 8 dereferenceable(24) %0, i32 noundef %11, i32 noundef %12, ptr noundef %13, ptr noundef %10) #8
  ret void
}

; Function Attrs: mustprogress nounwind uwtable
define linkonce_odr noundef nonnull align 8 dereferenceable(8) ptr @_ZNK5QListIPK14_fileset_entryE2atEx(ptr noundef nonnull align 8 dereferenceable(24) %0, i64 noundef %1) #2 comdat align 2 {
  %3 = alloca ptr, align 8
  %4 = alloca i64, align 8
  store ptr %0, ptr %3, align 8
  store i64 %1, ptr %4, align 8
  %5 = load ptr, ptr %3, align 8
  %6 = call noundef ptr @_ZNK5QListIPK14_fileset_entryE4dataEv(ptr noundef nonnull align 8 dereferenceable(24) %5) #8
  %7 = load i64, ptr %4, align 8
  %8 = getelementptr ptr, ptr %6, i64 %7
  ret ptr %8
}

; Function Attrs: mustprogress nounwind uwtable
define linkonce_odr void @_ZN11QModelIndexC2Ev(ptr noundef nonnull align 8 dereferenceable(24) %0) unnamed_addr #2 comdat align 2 {
  %2 = alloca ptr, align 8
  store ptr %0, ptr %2, align 8
  %3 = load ptr, ptr %2, align 8
  %4 = getelementptr inbounds %class.QModelIndex, ptr %3, i32 0, i32 0
  store i32 -1, ptr %4, align 8
  %5 = getelementptr inbounds %class.QModelIndex, ptr %3, i32 0, i32 1
  store i32 -1, ptr %5, align 4
  %6 = getelementptr inbounds %class.QModelIndex, ptr %3, i32 0, i32 2
  store i64 0, ptr %6, align 8
  %7 = getelementptr inbounds %class.QModelIndex, ptr %3, i32 0, i32 3
  store ptr null, ptr %7, align 8
  ret void
}

; Function Attrs: mustprogress nounwind uwtable
define linkonce_odr noundef i64 @_ZNK5QListIPK14_fileset_entryE5countEv(ptr noundef nonnull align 8 dereferenceable(24) %0) #2 comdat align 2 {
  %2 = alloca ptr, align 8
  store ptr %0, ptr %2, align 8
  %3 = load ptr, ptr %2, align 8
  %4 = call noundef i64 @_ZNK5QListIPK14_fileset_entryE4sizeEv(ptr noundef nonnull align 8 dereferenceable(24) %3) #8
  ret i64 %4
}

; Function Attrs: mustprogress uwtable
define void @_ZNK17FilesetEntryModel5indexEiiRK11QModelIndex(ptr dead_on_unwind noalias writable sret(%class.QModelIndex) align 8 %0, ptr noundef nonnull align 8 dereferenceable(40) %1, i32 noundef %2, i32 noundef %3, ptr noundef nonnull align 8 dereferenceable(24) %4) unnamed_addr #0 align 2 {
  %6 = alloca ptr, align 8
  %7 = alloca i32, align 4
  %8 = alloca i32, align 4
  %9 = alloca ptr, align 8
  store ptr %1, ptr %6, align 8
  store i32 %2, ptr %7, align 4
  store i32 %3, ptr %8, align 4
  store ptr %4, ptr %9, align 8
  %10 = load ptr, ptr %6, align 8
  %11 = load i32, ptr %7, align 4
  %12 = sext i32 %11 to i64
  %13 = getelementptr inbounds %class.FilesetEntryModel, ptr %10, i32 0, i32 1
  %14 = call noundef i64 @_ZNK5QListIPK14_fileset_entryE5countEv(ptr noundef nonnull align 8 dereferenceable(24) %13) #8
  %15 = icmp sge i64 %12, %14
  br i1 %15, label %22, label %16

16:                                               ; preds = %5
  %17 = load i32, ptr %7, align 4
  %18 = icmp slt i32 %17, 0
  br i1 %18, label %22, label %19

19:                                               ; preds = %16
  %20 = load i32, ptr %8, align 4
  %21 = icmp sgt i32 %20, 4
  br i1 %21, label %22, label %23

22:                                               ; preds = %19, %16, %5
  call void @_ZN11QModelIndexC2Ev(ptr noundef nonnull align 8 dereferenceable(24) %0) #8
  br label %31

23:                                               ; preds = %19
  %24 = load i32, ptr %7, align 4
  %25 = load i32, ptr %8, align 4
  %26 = getelementptr inbounds %class.FilesetEntryModel, ptr %10, i32 0, i32 1
  %27 = load i32, ptr %7, align 4
  %28 = sext i32 %27 to i64
  %29 = call noundef nonnull align 8 dereferenceable(8) ptr @_ZNK5QListIPK14_fileset_entryE2atEx(ptr noundef nonnull align 8 dereferenceable(24) %26, i64 noundef %28) #8
  %30 = load ptr, ptr %29, align 8
  call void @_ZNK18QAbstractItemModel11createIndexEiiPKv(ptr dead_on_unwind writable sret(%class.QModelIndex) align 8 %0, ptr noundef nonnull align 8 dereferenceable(16) %10, i32 noundef %24, i32 noundef %25, ptr noundef %30)
  br label %31

31:                                               ; preds = %23, %22
  ret void
}