; Function Attrs: mustprogress nofree norecurse nosync nounwind willreturn memory(read, argmem: readwrite, inaccessiblemem: none) uwtable
define void @_ZNK17FilesetEntryModel5indexEiiRK11QModelIndex(ptr dead_on_unwind noalias nocapture writable writeonly sret(%class.QModelIndex) align 8 %0, ptr noundef nonnull align 8 dereferenceable(40) %1, i32 noundef %2, i32 noundef %3, ptr nocapture noundef nonnull readnone align 8 dereferenceable(24) %4) unnamed_addr #2 align 2 {
  %6 = sext i32 %2 to i64
  %7 = getelementptr inbounds i8, ptr %1, i64 32
  %8 = load i64, ptr %7, align 8
  %9 = icmp sle i64 %8, %6
  %10 = icmp slt i32 %2, 0
  %or.cond = or i1 %10, %9
  %11 = icmp sgt i32 %3, 4
  %or.cond3 = or i1 %11, %or.cond
  br i1 %or.cond3, label %12, label %14

12:                                               ; preds = %5
  %13 = getelementptr inbounds i8, ptr %0, i64 8
  tail call void @llvm.memset.p0.i64(ptr noundef nonnull align 8 dereferenceable(16) %13, i8 0, i64 16, i1 false)
  br label %22

14:                                               ; preds = %5
  %15 = getelementptr inbounds i8, ptr %1, i64 24
  %16 = load ptr, ptr %15, align 8
  %17 = getelementptr ptr, ptr %16, i64 %6
  %18 = load ptr, ptr %17, align 8
  %19 = getelementptr inbounds i8, ptr %0, i64 8
  %20 = ptrtoint ptr %18 to i64
  store i64 %20, ptr %19, align 8, !alias.scope !4
  %21 = getelementptr inbounds i8, ptr %0, i64 16
  store ptr %1, ptr %21, align 8, !alias.scope !4
  br label %22

22:                                               ; preds = %14, %12
  %.sink11 = phi i32 [ -1, %12 ], [ %2, %14 ]
  %.sink = phi i32 [ -1, %12 ], [ %3, %14 ]
  store i32 %.sink11, ptr %0, align 8
  %23 = getelementptr inbounds i8, ptr %0, i64 4
  store i32 %.sink, ptr %23, align 4
  ret void
}